; Function Attrs: nofree norecurse nosync nounwind memory(argmem: readwrite) uwtable
define internal void @sum2_clip_s16(ptr noundef writeonly captures(none) %0, ptr noundef readonly captures(none) %1, ptr noundef readonly captures(none) %2, ptr noundef readonly captures(none) %3, i32 noundef %4, i32 noundef %5, i32 noundef %6) #0 {
  %8 = sext i32 %4 to i64
  %9 = getelementptr inbounds i32, ptr %3, i64 %8
  %10 = load i32, ptr %9, align 4, !tbaa !34
  %11 = sext i32 %5 to i64
  %12 = getelementptr inbounds i32, ptr %3, i64 %11
  %13 = load i32, ptr %12, align 4, !tbaa !34
  %14 = icmp sgt i32 %6, 0
  br i1 %14, label %.lr.ph.preheader, label %._crit_edge

.lr.ph.preheader:                                 ; preds = %7
  %wide.trip.count = zext nneg i32 %6 to i64
  br label %.lr.ph

.lr.ph:                                           ; preds = %.lr.ph.preheader, %.lr.ph
  %indvars.iv = phi i64 [ 0, %.lr.ph.preheader ], [ %indvars.iv.next, %.lr.ph ]
  %15 = getelementptr inbounds nuw i16, ptr %1, i64 %indvars.iv
  %16 = load i16, ptr %15, align 2, !tbaa !76
  %17 = sext i16 %16 to i32
  %18 = mul nsw i32 %10, %17
  %19 = getelementptr inbounds nuw i16, ptr %2, i64 %indvars.iv
  %20 = load i16, ptr %19, align 2, !tbaa !76
  %21 = sext i16 %20 to i32
  %22 = mul nsw i32 %13, %21
  %23 = add i32 %18, 16384
  %24 = add i32 %23, %22
  %25 = ashr i32 %24, 15
  %26 = tail call i32 @llvm.smax.i32(i32 %25, i32 -32768)
  %27 = tail call i32 @llvm.smin.i32(i32 %26, i32 32767)
  %.0.i = trunc nsw i32 %27 to i16
  %28 = getelementptr inbounds nuw i16, ptr %0, i64 %indvars.iv
  store i16 %.0.i, ptr %28, align 2, !tbaa !76
  %indvars.iv.next = add nuw nsw i64 %indvars.iv, 1
  %exitcond.not = icmp eq i64 %indvars.iv.next, %wide.trip.count
  br i1 %exitcond.not, label %._crit_edge, label %.lr.ph, !llvm.loop !81

._crit_edge:                                      ; preds = %.lr.ph, %7
  ret void
}